target datalayout = "e-m:e-p270:32:32-p271:32:32-p272:64:64-i64:64-i128:128-f80:128-n8:16:32:64-S128"
target triple = "x86_64-unknown-linux-gnu"

%struct.PostcopyTmpPage = type { ptr, ptr, i32, i8 }

; Function Attrs: nounwind sspstrong uwtable
define dso_local void @postcopy_temp_page_reset(ptr noundef %tmp_page) #0 {
entry:
  %tmp_page.addr = alloca ptr, align 8
  store ptr %tmp_page, ptr %tmp_page.addr, align 8
  %0 = load ptr, ptr %tmp_page.addr, align 8
  %target_pages = getelementptr inbounds %struct.PostcopyTmpPage, ptr %0, i32 0, i32 2
  store i32 0, ptr %target_pages, align 8
  %1 = load ptr, ptr %tmp_page.addr, align 8
  %host_addr = getelementptr inbounds %struct.PostcopyTmpPage, ptr %1, i32 0, i32 1
  store ptr null, ptr %host_addr, align 8
  %2 = load ptr, ptr %tmp_page.addr, align 8
  %all_zero = getelementptr inbounds %struct.PostcopyTmpPage, ptr %2, i32 0, i32 3
  store i8 1, ptr %all_zero, align 4
  ret void
}