; Function Attrs: mustprogress nofree norecurse nosync nounwind sspstrong willreturn memory(argmem: write) uwtable
define dso_local void @postcopy_temp_page_reset(ptr noundef writeonly captures(none) initializes((8, 21)) %tmp_page) local_unnamed_addr #6 {
entry:
  %target_pages = getelementptr inbounds nuw i8, ptr %tmp_page, i64 16
  store i32 0, ptr %target_pages, align 8
  %host_addr = getelementptr inbounds nuw i8, ptr %tmp_page, i64 8
  store ptr null, ptr %host_addr, align 8
  %all_zero = getelementptr inbounds nuw i8, ptr %tmp_page, i64 20
  store i8 1, ptr %all_zero, align 4
  ret void
}